(lp0
S'poi'
p1
aS'deferral_payments'
p2
aS'total_payments'
p3
aS'bonus'
p4
aS'restricted_stock_deferred'
p5
aS'deferred_income'
p6
aS'total_stock_value'
p7
aS'expenses'
p8
aS'exercised_stock_options'
p9
aS'long_term_incentive'
p10
aS'restricted_stock'
p11
aS'shared_receipt_with_poi'
p12
aS'from_this_person_to_poi'
p13
aS'from_poi_to_this_person'
p14
aS'perc_to_poi'
p15
aS'perc_from_poi'
p16
a.